target datalayout = "e-m:e-p270:32:32-p271:32:32-p272:64:64-i64:64-i128:128-f80:128-n8:16:32:64-S128"
target triple = "x86_64-pc-linux-gnu"

%"class.std::vector" = type { %"struct.std::_Vector_base" }
%"struct.std::_Vector_base" = type { %"struct.std::_Vector_base<Luau::Variant<Luau::TypePath::Property, Luau::TypePath::Index, Luau::TypePath::TypeField, Luau::TypePath::PackField, Luau::TypePath::Reduction>, std::allocator<Luau::Variant<Luau::TypePath::Property, Luau::TypePath::Index, Luau::TypePath::TypeField, Luau::TypePath::PackField, Luau::TypePath::Reduction>>>::_Vector_impl" }
%"struct.std::_Vector_base<Luau::Variant<Luau::TypePath::Property, Luau::TypePath::Index, Luau::TypePath::TypeField, Luau::TypePath::PackField, Luau::TypePath::Reduction>, std::allocator<Luau::Variant<Luau::TypePath::Property, Luau::TypePath::Index, Luau::TypePath::TypeField, Luau::TypePath::PackField, Luau::TypePath::Reduction>>>::_Vector_impl" = type { %"struct.std::_Vector_base<Luau::Variant<Luau::TypePath::Property, Luau::TypePath::Index, Luau::TypePath::TypeField, Luau::TypePath::PackField, Luau::TypePath::Reduction>, std::allocator<Luau::Variant<Luau::TypePath::Property, Luau::TypePath::Index, Luau::TypePath::TypeField, Luau::TypePath::PackField, Luau::TypePath::Reduction>>>::_Vector_impl_data" }
%"struct.std::_Vector_base<Luau::Variant<Luau::TypePath::Property, Luau::TypePath::Index, Luau::TypePath::TypeField, Luau::TypePath::PackField, Luau::TypePath::Reduction>, std::allocator<Luau::Variant<Luau::TypePath::Property, Luau::TypePath::Index, Luau::TypePath::TypeField, Luau::TypePath::PackField, Luau::TypePath::Reduction>>>::_Vector_impl_data" = type { ptr, ptr, ptr }
%"class.__gnu_cxx::__normal_iterator" = type { ptr }
%"class.Luau::Variant" = type { i32, [4 x i8], [40 x i8] }
%"struct.Luau::TypePath::PathBuilder" = type { %"class.std::vector" }

; Function Attrs: mustprogress uwtable
define linkonce_odr dso_local void @_ZN4Luau7VariantIJNS_8TypePath8PropertyENS1_5IndexENS1_9TypeFieldENS1_9PackFieldENS1_9ReductionEEEC2EOS7_(ptr noundef nonnull align 8 dereferenceable(48) %0, ptr noundef nonnull align 8 dereferenceable(48) %1) unnamed_addr #5 comdat align 2 {
  %3 = alloca ptr, align 8
  %4 = alloca ptr, align 8
  store ptr %0, ptr %3, align 8, !tbaa !50
  store ptr %1, ptr %4, align 8, !tbaa !50
  %5 = load ptr, ptr %3, align 8
  %6 = load ptr, ptr %4, align 8, !tbaa !50
  %7 = getelementptr inbounds nuw %"class.Luau::Variant", ptr %6, i32 0, i32 0
  %8 = load i32, ptr %7, align 8, !tbaa !73
  %9 = getelementptr inbounds nuw %"class.Luau::Variant", ptr %5, i32 0, i32 0
  store i32 %8, ptr %9, align 8, !tbaa !73
  %10 = getelementptr inbounds nuw %"class.Luau::Variant", ptr %5, i32 0, i32 0
  %11 = load i32, ptr %10, align 8, !tbaa !73
  %12 = sext i32 %11 to i64
  %13 = getelementptr inbounds [5 x ptr], ptr @_ZN4Luau7VariantIJNS_8TypePath8PropertyENS1_5IndexENS1_9TypeFieldENS1_9PackFieldENS1_9ReductionEEE9tableMoveE, i64 0, i64 %12
  %14 = load ptr, ptr %13, align 8, !tbaa !65
  %15 = getelementptr inbounds nuw %"class.Luau::Variant", ptr %5, i32 0, i32 2
  %16 = load ptr, ptr %4, align 8, !tbaa !50
  %17 = getelementptr inbounds nuw %"class.Luau::Variant", ptr %16, i32 0, i32 2
  call void %14(ptr noundef %15, ptr noundef %17)
  ret void
}

; Function Attrs: mustprogress nounwind uwtable
define linkonce_odr dso_local noundef nonnull align 8 dereferenceable(48) ptr @_ZNK9__gnu_cxx17__normal_iteratorIPN4Luau7VariantIJNS1_8TypePath8PropertyENS3_5IndexENS3_9TypeFieldENS3_9PackFieldENS3_9ReductionEEEESt6vectorIS9_SaIS9_EEEdeEv(ptr noundef nonnull align 8 dereferenceable(8) %0) #1 comdat align 2 {
  %2 = alloca ptr, align 8
  store ptr %0, ptr %2, align 8, !tbaa !55
  %3 = load ptr, ptr %2, align 8
  %4 = getelementptr inbounds nuw %"class.__gnu_cxx::__normal_iterator", ptr %3, i32 0, i32 0
  %5 = load ptr, ptr %4, align 8, !tbaa !454
  ret ptr %5
}

; Function Attrs: mustprogress nounwind uwtable
define linkonce_odr dso_local ptr @_ZNK9__gnu_cxx17__normal_iteratorIPN4Luau7VariantIJNS1_8TypePath8PropertyENS3_5IndexENS3_9TypeFieldENS3_9PackFieldENS3_9ReductionEEEESt6vectorIS9_SaIS9_EEEmiEl(ptr noundef nonnull align 8 dereferenceable(8) %0, i64 noundef %1) #1 comdat align 2 {
  %3 = alloca %"class.__gnu_cxx::__normal_iterator", align 8
  %4 = alloca ptr, align 8
  %5 = alloca i64, align 8
  %6 = alloca ptr, align 8
  store ptr %0, ptr %4, align 8, !tbaa !55
  store i64 %1, ptr %5, align 8, !tbaa !49
  %7 = load ptr, ptr %4, align 8
  call void @llvm.lifetime.start.p0(i64 8, ptr %6) #3
  %8 = getelementptr inbounds nuw %"class.__gnu_cxx::__normal_iterator", ptr %7, i32 0, i32 0
  %9 = load ptr, ptr %8, align 8, !tbaa !454
  %10 = load i64, ptr %5, align 8, !tbaa !49
  %11 = sub i64 0, %10
  %12 = getelementptr inbounds %"class.Luau::Variant", ptr %9, i64 %11
  store ptr %12, ptr %6, align 8, !tbaa !50
  call void @_ZN9__gnu_cxx17__normal_iteratorIPN4Luau7VariantIJNS1_8TypePath8PropertyENS3_5IndexENS3_9TypeFieldENS3_9PackFieldENS3_9ReductionEEEESt6vectorIS9_SaIS9_EEEC2ERKSA_(ptr noundef nonnull align 8 dereferenceable(8) %3, ptr noundef nonnull align 8 dereferenceable(8) %6) #3
  call void @llvm.lifetime.end.p0(i64 8, ptr %6) #3
  %13 = getelementptr inbounds nuw %"class.__gnu_cxx::__normal_iterator", ptr %3, i32 0, i32 0
  %14 = load ptr, ptr %13, align 8
  ret ptr %14
}

; Function Attrs: mustprogress nounwind uwtable
define linkonce_odr dso_local void @_ZN9__gnu_cxx17__normal_iteratorIPN4Luau7VariantIJNS1_8TypePath8PropertyENS3_5IndexENS3_9TypeFieldENS3_9PackFieldENS3_9ReductionEEEESt6vectorIS9_SaIS9_EEEC2ERKSA_(ptr noundef nonnull align 8 dereferenceable(8) %0, ptr noundef nonnull align 8 dereferenceable(8) %1) unnamed_addr #1 comdat align 2 {
  %3 = alloca ptr, align 8
  %4 = alloca ptr, align 8
  store ptr %0, ptr %3, align 8, !tbaa !55
  store ptr %1, ptr %4, align 8, !tbaa !452
  %5 = load ptr, ptr %3, align 8
  %6 = getelementptr inbounds nuw %"class.__gnu_cxx::__normal_iterator", ptr %5, i32 0, i32 0
  %7 = load ptr, ptr %4, align 8, !tbaa !452
  %8 = load ptr, ptr %7, align 8, !tbaa !50
  store ptr %8, ptr %6, align 8, !tbaa !454
  ret void
}

; Function Attrs: mustprogress uwtable
define linkonce_odr dso_local void @_ZNSt15__new_allocatorIN4Luau7VariantIJNS0_8TypePath8PropertyENS2_5IndexENS2_9TypeFieldENS2_9PackFieldENS2_9ReductionEEEEE9constructIS8_JS8_EEEvPT_DpOT0_(ptr noundef nonnull align 1 dereferenceable(1) %0, ptr noundef %1, ptr noundef nonnull align 8 dereferenceable(48) %2) #5 comdat align 2 {
  %4 = alloca ptr, align 8
  %5 = alloca ptr, align 8
  %6 = alloca ptr, align 8
  store ptr %0, ptr %4, align 8, !tbaa !114
  store ptr %1, ptr %5, align 8, !tbaa !50
  store ptr %2, ptr %6, align 8, !tbaa !50
  %7 = load ptr, ptr %5, align 8, !tbaa !50
  %8 = load ptr, ptr %6, align 8, !tbaa !50
  call void @_ZN4Luau7VariantIJNS_8TypePath8PropertyENS1_5IndexENS1_9TypeFieldENS1_9PackFieldENS1_9ReductionEEEC2EOS7_(ptr noundef nonnull align 8 dereferenceable(48) %7, ptr noundef nonnull align 8 dereferenceable(48) %8)
  ret void
}

; Function Attrs: mustprogress nounwind uwtable
define linkonce_odr dso_local noundef nonnull align 8 dereferenceable(48) ptr @_ZNSt6vectorIN4Luau7VariantIJNS0_8TypePath8PropertyENS2_5IndexENS2_9TypeFieldENS2_9PackFieldENS2_9ReductionEEEESaIS8_EE4backEv(ptr noundef nonnull align 8 dereferenceable(24) %0) #1 comdat align 2 {
  %2 = alloca ptr, align 8
  %3 = alloca %"class.__gnu_cxx::__normal_iterator", align 8
  %4 = alloca %"class.__gnu_cxx::__normal_iterator", align 8
  store ptr %0, ptr %2, align 8, !tbaa !43
  %5 = load ptr, ptr %2, align 8
  call void @llvm.lifetime.start.p0(i64 8, ptr %3) #3
  call void @llvm.lifetime.start.p0(i64 8, ptr %4) #3
  %6 = call ptr @_ZNSt6vectorIN4Luau7VariantIJNS0_8TypePath8PropertyENS2_5IndexENS2_9TypeFieldENS2_9PackFieldENS2_9ReductionEEEESaIS8_EE3endEv(ptr noundef nonnull align 8 dereferenceable(24) %5) #3
  %7 = getelementptr inbounds nuw %"class.__gnu_cxx::__normal_iterator", ptr %4, i32 0, i32 0
  store ptr %6, ptr %7, align 8
  %8 = call ptr @_ZNK9__gnu_cxx17__normal_iteratorIPN4Luau7VariantIJNS1_8TypePath8PropertyENS3_5IndexENS3_9TypeFieldENS3_9PackFieldENS3_9ReductionEEEESt6vectorIS9_SaIS9_EEEmiEl(ptr noundef nonnull align 8 dereferenceable(8) %4, i64 noundef 1) #3
  %9 = getelementptr inbounds nuw %"class.__gnu_cxx::__normal_iterator", ptr %3, i32 0, i32 0
  store ptr %8, ptr %9, align 8
  %10 = call noundef nonnull align 8 dereferenceable(48) ptr @_ZNK9__gnu_cxx17__normal_iteratorIPN4Luau7VariantIJNS1_8TypePath8PropertyENS3_5IndexENS3_9TypeFieldENS3_9PackFieldENS3_9ReductionEEEESt6vectorIS9_SaIS9_EEEdeEv(ptr noundef nonnull align 8 dereferenceable(8) %3) #3
  call void @llvm.lifetime.end.p0(i64 8, ptr %4) #3
  call void @llvm.lifetime.end.p0(i64 8, ptr %3) #3
  ret ptr %10
}

; Function Attrs: mustprogress nounwind uwtable
define linkonce_odr dso_local ptr @_ZNSt6vectorIN4Luau7VariantIJNS0_8TypePath8PropertyENS2_5IndexENS2_9TypeFieldENS2_9PackFieldENS2_9ReductionEEEESaIS8_EE3endEv(ptr noundef nonnull align 8 dereferenceable(24) %0) #1 comdat align 2 {
  %2 = alloca %"class.__gnu_cxx::__normal_iterator", align 8
  %3 = alloca ptr, align 8
  store ptr %0, ptr %3, align 8, !tbaa !43
  %4 = load ptr, ptr %3, align 8
  %5 = getelementptr inbounds nuw %"struct.std::_Vector_base", ptr %4, i32 0, i32 0
  %6 = getelementptr inbounds nuw %"struct.std::_Vector_base<Luau::Variant<Luau::TypePath::Property, Luau::TypePath::Index, Luau::TypePath::TypeField, Luau::TypePath::PackField, Luau::TypePath::Reduction>, std::allocator<Luau::Variant<Luau::TypePath::Property, Luau::TypePath::Index, Luau::TypePath::TypeField, Luau::TypePath::PackField, Luau::TypePath::Reduction>>>::_Vector_impl_data", ptr %5, i32 0, i32 1
  call void @_ZN9__gnu_cxx17__normal_iteratorIPN4Luau7VariantIJNS1_8TypePath8PropertyENS3_5IndexENS3_9TypeFieldENS3_9PackFieldENS3_9ReductionEEEESt6vectorIS9_SaIS9_EEEC2ERKSA_(ptr noundef nonnull align 8 dereferenceable(8) %2, ptr noundef nonnull align 8 dereferenceable(8) %6) #3
  %7 = getelementptr inbounds nuw %"class.__gnu_cxx::__normal_iterator", ptr %2, i32 0, i32 0
  %8 = load ptr, ptr %7, align 8
  ret ptr %8
}

; Function Attrs: mustprogress uwtable
define linkonce_odr dso_local void @_ZNSt16allocator_traitsISaIN4Luau7VariantIJNS0_8TypePath8PropertyENS2_5IndexENS2_9TypeFieldENS2_9PackFieldENS2_9ReductionEEEEEE9constructIS8_JS8_EEEvRS9_PT_DpOT0_(ptr noundef nonnull align 1 dereferenceable(1) %0, ptr noundef %1, ptr noundef nonnull align 8 dereferenceable(48) %2) #5 comdat align 2 {
  %4 = alloca ptr, align 8
  %5 = alloca ptr, align 8
  %6 = alloca ptr, align 8
  store ptr %0, ptr %4, align 8, !tbaa !116
  store ptr %1, ptr %5, align 8, !tbaa !50
  store ptr %2, ptr %6, align 8, !tbaa !50
  %7 = load ptr, ptr %4, align 8, !tbaa !116
  %8 = load ptr, ptr %5, align 8, !tbaa !50
  %9 = load ptr, ptr %6, align 8, !tbaa !50
  call void @_ZNSt15__new_allocatorIN4Luau7VariantIJNS0_8TypePath8PropertyENS2_5IndexENS2_9TypeFieldENS2_9PackFieldENS2_9ReductionEEEEE9constructIS8_JS8_EEEvPT_DpOT0_(ptr noundef nonnull align 1 dereferenceable(1) %7, ptr noundef %8, ptr noundef nonnull align 8 dereferenceable(48) %9)
  ret void
}

; Function Attrs: mustprogress uwtable
define linkonce_odr dso_local noundef nonnull align 8 dereferenceable(48) ptr @_ZNSt6vectorIN4Luau7VariantIJNS0_8TypePath8PropertyENS2_5IndexENS2_9TypeFieldENS2_9PackFieldENS2_9ReductionEEEESaIS8_EE12emplace_backIJS8_EEERS8_DpOT_(ptr noundef nonnull align 8 dereferenceable(24) %0, ptr noundef nonnull align 8 dereferenceable(48) %1) #5 comdat align 2 {
  %3 = alloca ptr, align 8
  %4 = alloca ptr, align 8
  %5 = alloca %"class.__gnu_cxx::__normal_iterator", align 8
  store ptr %0, ptr %3, align 8, !tbaa !43
  store ptr %1, ptr %4, align 8, !tbaa !50
  %6 = load ptr, ptr %3, align 8
  %7 = getelementptr inbounds nuw %"struct.std::_Vector_base", ptr %6, i32 0, i32 0
  %8 = getelementptr inbounds nuw %"struct.std::_Vector_base<Luau::Variant<Luau::TypePath::Property, Luau::TypePath::Index, Luau::TypePath::TypeField, Luau::TypePath::PackField, Luau::TypePath::Reduction>, std::allocator<Luau::Variant<Luau::TypePath::Property, Luau::TypePath::Index, Luau::TypePath::TypeField, Luau::TypePath::PackField, Luau::TypePath::Reduction>>>::_Vector_impl_data", ptr %7, i32 0, i32 1
  %9 = load ptr, ptr %8, align 8, !tbaa !48
  %10 = getelementptr inbounds nuw %"struct.std::_Vector_base", ptr %6, i32 0, i32 0
  %11 = getelementptr inbounds nuw %"struct.std::_Vector_base<Luau::Variant<Luau::TypePath::Property, Luau::TypePath::Index, Luau::TypePath::TypeField, Luau::TypePath::PackField, Luau::TypePath::Reduction>, std::allocator<Luau::Variant<Luau::TypePath::Property, Luau::TypePath::Index, Luau::TypePath::TypeField, Luau::TypePath::PackField, Luau::TypePath::Reduction>>>::_Vector_impl_data", ptr %10, i32 0, i32 2
  %12 = load ptr, ptr %11, align 8, !tbaa !51
  %13 = icmp ne ptr %9, %12
  br i1 %13, label %14, label %24

14:                                               ; preds = %2
  %15 = getelementptr inbounds nuw %"struct.std::_Vector_base", ptr %6, i32 0, i32 0
  %16 = getelementptr inbounds nuw %"struct.std::_Vector_base", ptr %6, i32 0, i32 0
  %17 = getelementptr inbounds nuw %"struct.std::_Vector_base<Luau::Variant<Luau::TypePath::Property, Luau::TypePath::Index, Luau::TypePath::TypeField, Luau::TypePath::PackField, Luau::TypePath::Reduction>, std::allocator<Luau::Variant<Luau::TypePath::Property, Luau::TypePath::Index, Luau::TypePath::TypeField, Luau::TypePath::PackField, Luau::TypePath::Reduction>>>::_Vector_impl_data", ptr %16, i32 0, i32 1
  %18 = load ptr, ptr %17, align 8, !tbaa !48
  %19 = load ptr, ptr %4, align 8, !tbaa !50
  call void @_ZNSt16allocator_traitsISaIN4Luau7VariantIJNS0_8TypePath8PropertyENS2_5IndexENS2_9TypeFieldENS2_9PackFieldENS2_9ReductionEEEEEE9constructIS8_JS8_EEEvRS9_PT_DpOT0_(ptr noundef nonnull align 1 dereferenceable(1) %15, ptr noundef %18, ptr noundef nonnull align 8 dereferenceable(48) %19)
  %20 = getelementptr inbounds nuw %"struct.std::_Vector_base", ptr %6, i32 0, i32 0
  %21 = getelementptr inbounds nuw %"struct.std::_Vector_base<Luau::Variant<Luau::TypePath::Property, Luau::TypePath::Index, Luau::TypePath::TypeField, Luau::TypePath::PackField, Luau::TypePath::Reduction>, std::allocator<Luau::Variant<Luau::TypePath::Property, Luau::TypePath::Index, Luau::TypePath::TypeField, Luau::TypePath::PackField, Luau::TypePath::Reduction>>>::_Vector_impl_data", ptr %20, i32 0, i32 1
  %22 = load ptr, ptr %21, align 8, !tbaa !48
  %23 = getelementptr inbounds nuw %"class.Luau::Variant", ptr %22, i32 1
  store ptr %23, ptr %21, align 8, !tbaa !48
  br label %30

24:                                               ; preds = %2
  %25 = call ptr @_ZNSt6vectorIN4Luau7VariantIJNS0_8TypePath8PropertyENS2_5IndexENS2_9TypeFieldENS2_9PackFieldENS2_9ReductionEEEESaIS8_EE3endEv(ptr noundef nonnull align 8 dereferenceable(24) %6) #3
  %26 = getelementptr inbounds nuw %"class.__gnu_cxx::__normal_iterator", ptr %5, i32 0, i32 0
  store ptr %25, ptr %26, align 8
  %27 = load ptr, ptr %4, align 8, !tbaa !50
  %28 = getelementptr inbounds nuw %"class.__gnu_cxx::__normal_iterator", ptr %5, i32 0, i32 0
  %29 = load ptr, ptr %28, align 8
  call void @_ZNSt6vectorIN4Luau7VariantIJNS0_8TypePath8PropertyENS2_5IndexENS2_9TypeFieldENS2_9PackFieldENS2_9ReductionEEEESaIS8_EE17_M_realloc_insertIJS8_EEEvN9__gnu_cxx17__normal_iteratorIPS8_SA_EEDpOT_(ptr noundef nonnull align 8 dereferenceable(24) %6, ptr %29, ptr noundef nonnull align 8 dereferenceable(48) %27)
  br label %30

30:                                               ; preds = %24, %14
  %31 = call noundef nonnull align 8 dereferenceable(48) ptr @_ZNSt6vectorIN4Luau7VariantIJNS0_8TypePath8PropertyENS2_5IndexENS2_9TypeFieldENS2_9PackFieldENS2_9ReductionEEEESaIS8_EE4backEv(ptr noundef nonnull align 8 dereferenceable(24) %6) #3
  ret ptr %31
}

; Function Attrs: mustprogress nounwind uwtable
define linkonce_odr dso_local void @_ZN4Luau7VariantIJNS_8TypePath8PropertyENS1_5IndexENS1_9TypeFieldENS1_9PackFieldENS1_9ReductionEEED2Ev(ptr noundef nonnull align 8 dereferenceable(48) %0) unnamed_addr #1 comdat align 2 personality ptr @__gxx_personality_v0 {
  %2 = alloca ptr, align 8
  store ptr %0, ptr %2, align 8, !tbaa !50
  %3 = load ptr, ptr %2, align 8
  %4 = getelementptr inbounds nuw %"class.Luau::Variant", ptr %3, i32 0, i32 0
  %5 = load i32, ptr %4, align 8, !tbaa !73
  %6 = sext i32 %5 to i64
  %7 = getelementptr inbounds [5 x ptr], ptr @_ZN4Luau7VariantIJNS_8TypePath8PropertyENS1_5IndexENS1_9TypeFieldENS1_9PackFieldENS1_9ReductionEEE9tableDtorE, i64 0, i64 %6
  %8 = load ptr, ptr %7, align 8, !tbaa !65
  %9 = getelementptr inbounds nuw %"class.Luau::Variant", ptr %3, i32 0, i32 2
  invoke void %8(ptr noundef %9)
          to label %10 unwind label %11

10:                                               ; preds = %1
  ret void

11:                                               ; preds = %1
  %12 = landingpad { ptr, i32 }
          catch ptr null
  %13 = extractvalue { ptr, i32 } %12, 0
  call void @__clang_call_terminate(ptr %13) #18
  unreachable
}

; Function Attrs: mustprogress uwtable
define linkonce_odr dso_local void @_ZNSt6vectorIN4Luau7VariantIJNS0_8TypePath8PropertyENS2_5IndexENS2_9TypeFieldENS2_9PackFieldENS2_9ReductionEEEESaIS8_EE9push_backEOS8_(ptr noundef nonnull align 8 dereferenceable(24) %0, ptr noundef nonnull align 8 dereferenceable(48) %1) #5 comdat align 2 {
  %3 = alloca ptr, align 8
  %4 = alloca ptr, align 8
  store ptr %0, ptr %3, align 8, !tbaa !43
  store ptr %1, ptr %4, align 8, !tbaa !50
  %5 = load ptr, ptr %3, align 8
  %6 = load ptr, ptr %4, align 8, !tbaa !50
  %7 = call noundef nonnull align 8 dereferenceable(48) ptr @_ZNSt6vectorIN4Luau7VariantIJNS0_8TypePath8PropertyENS2_5IndexENS2_9TypeFieldENS2_9PackFieldENS2_9ReductionEEEESaIS8_EE12emplace_backIJS8_EEERS8_DpOT_(ptr noundef nonnull align 8 dereferenceable(24) %5, ptr noundef nonnull align 8 dereferenceable(48) %6)
  ret void
}

; Function Attrs: mustprogress nounwind uwtable
define linkonce_odr dso_local void @_ZN4Luau7VariantIJNS_8TypePath8PropertyENS1_5IndexENS1_9TypeFieldENS1_9PackFieldENS1_9ReductionEEEC2IS5_EEOT_PNSt9enable_ifIXgecl9getTypeIdIS9_EELi0EEvE4typeE(ptr noundef nonnull align 8 dereferenceable(48) %0, ptr noundef nonnull align 4 dereferenceable(4) %1, ptr noundef %2) unnamed_addr #1 comdat align 2 {
  %4 = alloca ptr, align 8
  %5 = alloca ptr, align 8
  %6 = alloca ptr, align 8
  %7 = alloca i32, align 4
  store ptr %0, ptr %4, align 8, !tbaa !50
  store ptr %1, ptr %5, align 8, !tbaa !65
  store ptr %2, ptr %6, align 8, !tbaa !65
  %8 = load ptr, ptr %4, align 8
  call void @llvm.lifetime.start.p0(i64 4, ptr %7) #3
  store i32 3, ptr %7, align 4, !tbaa !9
  %9 = getelementptr inbounds nuw %"class.Luau::Variant", ptr %8, i32 0, i32 0
  store i32 3, ptr %9, align 8, !tbaa !73
  %10 = getelementptr inbounds nuw %"class.Luau::Variant", ptr %8, i32 0, i32 2
  %11 = load ptr, ptr %5, align 8, !tbaa !65
  %12 = load i32, ptr %11, align 4, !tbaa !68
  store i32 %12, ptr %10, align 8, !tbaa !68
  call void @llvm.lifetime.end.p0(i64 4, ptr %7) #3
  ret void
}

; Function Attrs: mustprogress uwtable
define dso_local noundef nonnull align 8 dereferenceable(24) ptr @_ZN4Luau8TypePath11PathBuilder4tailEv(ptr noundef nonnull align 8 dereferenceable(24) %0) #5 align 2 personality ptr @__gxx_personality_v0 {
  %2 = alloca ptr, align 8
  %3 = alloca %"class.Luau::Variant", align 8
  %4 = alloca i32, align 4
  %5 = alloca ptr, align 8
  %6 = alloca i32, align 4
  store ptr %0, ptr %2, align 8, !tbaa !75
  %7 = load ptr, ptr %2, align 8
  %8 = getelementptr inbounds nuw %"struct.Luau::TypePath::PathBuilder", ptr %7, i32 0, i32 0
  call void @llvm.lifetime.start.p0(i64 48, ptr %3) #3
  call void @llvm.lifetime.start.p0(i64 4, ptr %4) #3
  store i32 2, ptr %4, align 4, !tbaa !68
  call void @_ZN4Luau7VariantIJNS_8TypePath8PropertyENS1_5IndexENS1_9TypeFieldENS1_9PackFieldENS1_9ReductionEEEC2IS5_EEOT_PNSt9enable_ifIXgecl9getTypeIdIS9_EELi0EEvE4typeE(ptr noundef nonnull align 8 dereferenceable(48) %3, ptr noundef nonnull align 4 dereferenceable(4) %4, ptr noundef null)
  invoke void @_ZNSt6vectorIN4Luau7VariantIJNS0_8TypePath8PropertyENS2_5IndexENS2_9TypeFieldENS2_9PackFieldENS2_9ReductionEEEESaIS8_EE9push_backEOS8_(ptr noundef nonnull align 8 dereferenceable(24) %8, ptr noundef nonnull align 8 dereferenceable(48) %3)
          to label %9 unwind label %10

9:                                                ; preds = %1
  call void @_ZN4Luau7VariantIJNS_8TypePath8PropertyENS1_5IndexENS1_9TypeFieldENS1_9PackFieldENS1_9ReductionEEED2Ev(ptr noundef nonnull align 8 dereferenceable(48) %3) #3
  call void @llvm.lifetime.end.p0(i64 4, ptr %4) #3
  call void @llvm.lifetime.end.p0(i64 48, ptr %3) #3
  ret ptr %7

10:                                               ; preds = %1
  %11 = landingpad { ptr, i32 }
          cleanup
  %12 = extractvalue { ptr, i32 } %11, 0
  store ptr %12, ptr %5, align 8
  %13 = extractvalue { ptr, i32 } %11, 1
  store i32 %13, ptr %6, align 4
  call void @_ZN4Luau7VariantIJNS_8TypePath8PropertyENS1_5IndexENS1_9TypeFieldENS1_9PackFieldENS1_9ReductionEEED2Ev(ptr noundef nonnull align 8 dereferenceable(48) %3) #3
  call void @llvm.lifetime.end.p0(i64 4, ptr %4) #3
  call void @llvm.lifetime.end.p0(i64 48, ptr %3) #3
  br label %14

14:                                               ; preds = %10
  %15 = load ptr, ptr %5, align 8
  %16 = load i32, ptr %6, align 4
  %17 = insertvalue { ptr, i32 } poison, ptr %15, 0
  %18 = insertvalue { ptr, i32 } %17, i32 %16, 1
  resume { ptr, i32 } %18
}